; ModuleID = '30/3123.c'
source_filename = "30/3123.c"
target datalayout = "e-m:e-p270:32:32-p271:32:32-p272:64:64-i64:64-f80:128-n8:16:32:64-S128"
target triple = "x86_64-pc-linux-gnu"

@.str = private unnamed_addr constant [3 x i8] c"%d\00", align 1
@.str.1 = private unnamed_addr constant [4 x i8] c"%d\0A\00", align 1

; Function Attrs: noinline nounwind uwtable
define dso_local i32 @main() #0 {
  %1 = alloca i32, align 4
  %2 = alloca i32, align 4
  %3 = alloca i32, align 4
  store i32 0, i32* %1, align 4
  %4 = call i32 (i8*, ...) @__isoc99_scanf(i8* getelementptr inbounds ([3 x i8], [3 x i8]* @.str, i64 0, i64 0), i32* %2)
  br label %5

5:                                                ; preds = %30, %0
  %6 = load i32, i32* %2, align 4
  %7 = icmp sge i32 %6, 0
  br i1 %7, label %8, label %33

8:                                                ; preds = %5
  %9 = load i32, i32* %2, align 4
  switch i32 %9, label %12 [
    i32 7, label %10
    i32 17, label %10
    i32 27, label %10
    i32 37, label %10
    i32 47, label %10
    i32 57, label %10
    i32 67, label %10
    i32 77, label %10
    i32 87, label %10
    i32 97, label %10
  ]

10:                                               ; preds = %8, %8, %8, %8, %8, %8, %8, %8, %8, %8
  %11 = load i32, i32* %3, align 4
  store i32 %11, i32* %3, align 4
  br label %30

12:                                               ; preds = %8
  %13 = load i32, i32* %2, align 4
  %14 = srem i32 %13, 7
  %15 = icmp eq i32 %14, 0
  br i1 %15, label %22, label %16

16:                                               ; preds = %12
  %17 = load i32, i32* %2, align 4
  %18 = icmp sge i32 %17, 70
  br i1 %18, label %19, label %23

19:                                               ; preds = %16
  %20 = load i32, i32* %2, align 4
  %21 = icmp sle i32 %20, 79
  br i1 %21, label %22, label %23

22:                                               ; preds = %19, %12
  br label %30

23:                                               ; preds = %19, %16
  %24 = load i32, i32* %3, align 4
  %25 = load i32, i32* %2, align 4
  %26 = load i32, i32* %2, align 4
  %27 = mul nsw i32 %25, %26
  %28 = add nsw i32 %24, %27
  store i32 %28, i32* %3, align 4
  br label %29

29:                                               ; preds = %23
  br label %30

30:                                               ; preds = %29, %22, %10
  %31 = load i32, i32* %2, align 4
  %32 = add nsw i32 %31, -1
  store i32 %32, i32* %2, align 4
  br label %5

33:                                               ; preds = %5
  %34 = load i32, i32* %3, align 4
  %35 = call i32 (i8*, ...) @printf(i8* getelementptr inbounds ([4 x i8], [4 x i8]* @.str.1, i64 0, i64 0), i32 %34)
  ret i32 0
}

declare dso_local i32 @__isoc99_scanf(i8*, ...) #1

declare dso_local i32 @printf(i8*, ...) #1


!llvm.module.flags = !{!0}
!llvm.ident = !{!1}

!0 = !{i32 1, !"wchar_size", i32 4}
!1 = !{!"clang version 10.0.0-4ubuntu1 "}
