; ModuleID = 'source-C-CXX/29/3123.c'
source_filename = "source-C-CXX/29/3123.c"
target datalayout = "e-m:e-p270:32:32-p271:32:32-p272:64:64-i64:64-f80:128-n8:16:32:64-S128"
target triple = "x86_64-pc-linux-gnu"

@.str = private unnamed_addr constant [3 x i8] c"%d\00", align 1
@.str.1 = private unnamed_addr constant [4 x i8] c"%d\0A\00", align 1

; Function Attrs: nofree nounwind sspstrong uwtable
define dso_local i32 @main() local_unnamed_addr #0 {
  %1 = alloca i32, align 4
  %2 = bitcast i32* %1 to i8*
  call void @llvm.lifetime.start.p0i8(i64 4, i8* nonnull %2) #3
  %3 = call i32 (i8*, ...) @__isoc99_scanf(i8* getelementptr inbounds ([3 x i8], [3 x i8]* @.str, i64 0, i64 0), i32* nonnull %1)
  %4 = load i32, i32* %1, align 4, !tbaa !5
  %5 = icmp sgt i32 %4, -1
  br i1 %5, label %6, label %23

6:                                                ; preds = %0, %18
  %7 = phi i32 [ %19, %18 ], [ undef, %0 ]
  %8 = phi i32 [ %20, %18 ], [ %4, %0 ]
  switch i32 %8, label %9 [
    i32 7, label %18
    i32 17, label %18
    i32 27, label %18
    i32 37, label %18
    i32 47, label %18
    i32 57, label %18
    i32 67, label %18
    i32 77, label %18
    i32 87, label %18
    i32 97, label %18
  ]

9:                                                ; preds = %6
  %10 = urem i32 %8, 7
  %11 = icmp eq i32 %10, 0
  %12 = add nsw i32 %8, -70
  %13 = icmp ult i32 %12, 10
  %14 = or i1 %11, %13
  br i1 %14, label %18, label %15

15:                                               ; preds = %9
  %16 = mul nsw i32 %8, %8
  %17 = add nsw i32 %7, %16
  br label %18

18:                                               ; preds = %6, %6, %6, %6, %6, %6, %6, %6, %6, %6, %9, %15
  %19 = phi i32 [ %7, %9 ], [ %17, %15 ], [ %7, %6 ], [ %7, %6 ], [ %7, %6 ], [ %7, %6 ], [ %7, %6 ], [ %7, %6 ], [ %7, %6 ], [ %7, %6 ], [ %7, %6 ], [ %7, %6 ]
  %20 = add nsw i32 %8, -1
  %21 = icmp sgt i32 %8, 0
  br i1 %21, label %6, label %22, !llvm.loop !9

22:                                               ; preds = %18
  store i32 -1, i32* %1, align 4, !tbaa !5
  br label %23

23:                                               ; preds = %22, %0
  %24 = phi i32 [ %19, %22 ], [ undef, %0 ]
  %25 = call i32 (i8*, ...) @printf(i8* nonnull dereferenceable(1) getelementptr inbounds ([4 x i8], [4 x i8]* @.str.1, i64 0, i64 0), i32 %24)
  call void @llvm.lifetime.end.p0i8(i64 4, i8* nonnull %2) #3
  ret i32 0
}

; Function Attrs: argmemonly mustprogress nofree nosync nounwind willreturn
declare void @llvm.lifetime.start.p0i8(i64 immarg, i8* nocapture) #1

; Function Attrs: nofree nounwind
declare noundef i32 @__isoc99_scanf(i8* nocapture noundef readonly, ...) local_unnamed_addr #2

; Function Attrs: nofree nounwind
declare noundef i32 @printf(i8* nocapture noundef readonly, ...) local_unnamed_addr #2

; Function Attrs: argmemonly mustprogress nofree nosync nounwind willreturn
declare void @llvm.lifetime.end.p0i8(i64 immarg, i8* nocapture) #1


!llvm.module.flags = !{!0, !1, !2, !3}
!llvm.ident = !{!4}

!0 = !{i32 1, !"wchar_size", i32 4}
!1 = !{i32 7, !"PIC Level", i32 2}
!2 = !{i32 7, !"PIE Level", i32 2}
!3 = !{i32 7, !"uwtable", i32 1}
!4 = !{!"clang version 13.0.0"}
!5 = !{!6, !6, i64 0}
!6 = !{!"int", !7, i64 0}
!7 = !{!"omnipotent char", !8, i64 0}
!8 = !{!"Simple C/C++ TBAA"}
!9 = distinct !{!9, !10}
!10 = !{!"llvm.loop.mustprogress"}
